target datalayout = "e-m:e-p270:32:32-p271:32:32-p272:64:64-i64:64-i128:128-f80:128-n8:16:32:64-S128"
target triple = "x86_64-pc-linux-gnu"

%struct.ULocaleData = type { i8, ptr, ptr }

@.str.14 = private unnamed_addr constant [21 x i8] c"localeDisplayPattern\00", align 1
@.str.15 = private unnamed_addr constant [8 x i8] c"pattern\00", align 1

; Function Attrs: inlinehint mustprogress nounwind uwtable
define internal noundef signext i8 @_ZL9U_FAILURE10UErrorCode(i32 noundef %0) #2 {
  %2 = alloca i32, align 4
  store i32 %0, ptr %2, align 4, !tbaa !15
  %3 = load i32, ptr %2, align 4, !tbaa !15
  %4 = icmp sgt i32 %3, 0
  %5 = zext i1 %4 to i8
  ret i8 %5
}

; Function Attrs: mustprogress uwtable
define i32 @ulocdata_getLocaleDisplayPattern_77(ptr noundef %0, ptr noundef %1, i32 noundef %2, ptr noundef %3) #1 {
  %5 = alloca i32, align 4
  %6 = alloca ptr, align 8
  %7 = alloca ptr, align 8
  %8 = alloca i32, align 4
  %9 = alloca ptr, align 8
  %10 = alloca ptr, align 8
  %11 = alloca i32, align 4
  %12 = alloca ptr, align 8
  %13 = alloca i32, align 4
  %14 = alloca i32, align 4
  store ptr %0, ptr %6, align 8, !tbaa !23
  store ptr %1, ptr %7, align 8, !tbaa !35
  store i32 %2, ptr %8, align 4, !tbaa !14
  store ptr %3, ptr %9, align 8, !tbaa !22
  call void @llvm.lifetime.start.p0(i64 8, ptr %10) #9
  call void @llvm.lifetime.start.p0(i64 4, ptr %11) #9
  store i32 0, ptr %11, align 4, !tbaa !14
  call void @llvm.lifetime.start.p0(i64 8, ptr %12) #9
  store ptr null, ptr %12, align 8, !tbaa !35
  call void @llvm.lifetime.start.p0(i64 4, ptr %13) #9
  store i32 0, ptr %13, align 4, !tbaa !15
  %15 = load ptr, ptr %9, align 8, !tbaa !22
  %16 = load i32, ptr %15, align 4, !tbaa !15
  %17 = call noundef signext i8 @_ZL9U_FAILURE10UErrorCode(i32 noundef %16)
  %18 = icmp ne i8 %17, 0
  br i1 %18, label %19, label %20

19:                                               ; preds = %4
  store i32 0, ptr %5, align 4
  store i32 1, ptr %14, align 4
  br label %83

20:                                               ; preds = %4
  %21 = load ptr, ptr %6, align 8, !tbaa !23
  %22 = getelementptr inbounds nuw %struct.ULocaleData, ptr %21, i32 0, i32 2
  %23 = load ptr, ptr %22, align 8, !tbaa !25
  %24 = icmp eq ptr %23, null
  br i1 %24, label %25, label %27

25:                                               ; preds = %20
  %26 = load ptr, ptr %9, align 8, !tbaa !22
  store i32 2, ptr %26, align 4, !tbaa !15
  store i32 0, ptr %5, align 4
  store i32 1, ptr %14, align 4
  br label %83

27:                                               ; preds = %20
  %28 = load ptr, ptr %6, align 8, !tbaa !23
  %29 = getelementptr inbounds nuw %struct.ULocaleData, ptr %28, i32 0, i32 2
  %30 = load ptr, ptr %29, align 8, !tbaa !25
  %31 = call ptr @ures_getByKey_77(ptr noundef %30, ptr noundef @.str.14, ptr noundef null, ptr noundef %13)
  store ptr %31, ptr %10, align 8, !tbaa !39
  %32 = load i32, ptr %13, align 4, !tbaa !15
  %33 = icmp eq i32 %32, -127
  br i1 %33, label %34, label %40

34:                                               ; preds = %27
  %35 = load ptr, ptr %6, align 8, !tbaa !23
  %36 = getelementptr inbounds nuw %struct.ULocaleData, ptr %35, i32 0, i32 0
  %37 = load i8, ptr %36, align 8, !tbaa !28
  %38 = icmp ne i8 %37, 0
  br i1 %38, label %39, label %40

39:                                               ; preds = %34
  store i32 2, ptr %13, align 4, !tbaa !15
  br label %40

40:                                               ; preds = %39, %34, %27
  %41 = load i32, ptr %13, align 4, !tbaa !15
  %42 = icmp ne i32 %41, 0
  br i1 %42, label %43, label %46

43:                                               ; preds = %40
  %44 = load i32, ptr %13, align 4, !tbaa !15
  %45 = load ptr, ptr %9, align 8, !tbaa !22
  store i32 %44, ptr %45, align 4, !tbaa !15
  br label %46

46:                                               ; preds = %43, %40
  %47 = load ptr, ptr %9, align 8, !tbaa !22
  %48 = load i32, ptr %47, align 4, !tbaa !15
  %49 = call noundef signext i8 @_ZL9U_FAILURE10UErrorCode(i32 noundef %48)
  %50 = icmp ne i8 %49, 0
  br i1 %50, label %51, label %53

51:                                               ; preds = %46
  %52 = load ptr, ptr %10, align 8, !tbaa !39
  call void @ures_close_77(ptr noundef %52)
  store i32 0, ptr %5, align 4
  store i32 1, ptr %14, align 4
  br label %83

53:                                               ; preds = %46
  %54 = load ptr, ptr %10, align 8, !tbaa !39
  %55 = call ptr @ures_getStringByKey_77(ptr noundef %54, ptr noundef @.str.15, ptr noundef %11, ptr noundef %13)
  store ptr %55, ptr %12, align 8, !tbaa !35
  %56 = load ptr, ptr %10, align 8, !tbaa !39
  call void @ures_close_77(ptr noundef %56)
  %57 = load i32, ptr %13, align 4, !tbaa !15
  %58 = icmp eq i32 %57, -127
  br i1 %58, label %59, label %65

59:                                               ; preds = %53
  %60 = load ptr, ptr %6, align 8, !tbaa !23
  %61 = getelementptr inbounds nuw %struct.ULocaleData, ptr %60, i32 0, i32 0
  %62 = load i8, ptr %61, align 8, !tbaa !28
  %63 = icmp ne i8 %62, 0
  br i1 %63, label %64, label %65

64:                                               ; preds = %59
  store i32 2, ptr %13, align 4, !tbaa !15
  br label %65

65:                                               ; preds = %64, %59, %53
  %66 = load i32, ptr %13, align 4, !tbaa !15
  %67 = icmp ne i32 %66, 0
  br i1 %67, label %68, label %71

68:                                               ; preds = %65
  %69 = load i32, ptr %13, align 4, !tbaa !15
  %70 = load ptr, ptr %9, align 8, !tbaa !22
  store i32 %69, ptr %70, align 4, !tbaa !15
  br label %71

71:                                               ; preds = %68, %65
  %72 = load ptr, ptr %9, align 8, !tbaa !22
  %73 = load i32, ptr %72, align 4, !tbaa !15
  %74 = call noundef signext i8 @_ZL9U_FAILURE10UErrorCode(i32 noundef %73)
  %75 = icmp ne i8 %74, 0
  br i1 %75, label %76, label %77

76:                                               ; preds = %71
  store i32 0, ptr %5, align 4
  store i32 1, ptr %14, align 4
  br label %83

77:                                               ; preds = %71
  %78 = load ptr, ptr %7, align 8, !tbaa !35
  %79 = load ptr, ptr %12, align 8, !tbaa !35
  %80 = load i32, ptr %8, align 4, !tbaa !14
  %81 = call ptr @u_strncpy_77(ptr noundef %78, ptr noundef %79, i32 noundef %80)
  %82 = load i32, ptr %11, align 4, !tbaa !14
  store i32 %82, ptr %5, align 4
  store i32 1, ptr %14, align 4
  br label %83

83:                                               ; preds = %77, %76, %51, %25, %19
  call void @llvm.lifetime.end.p0(i64 4, ptr %13) #9
  call void @llvm.lifetime.end.p0(i64 8, ptr %12) #9
  call void @llvm.lifetime.end.p0(i64 4, ptr %11) #9
  call void @llvm.lifetime.end.p0(i64 8, ptr %10) #9
  %84 = load i32, ptr %5, align 4
  ret i32 %84
}