; Function Attrs: mustprogress uwtable
define i32 @ulocdata_getLocaleDisplayPattern_77(ptr noundef readonly captures(none) %0, ptr noundef %1, i32 noundef %2, ptr noundef captures(none) %3) local_unnamed_addr #1 {
  %5 = alloca i32, align 4
  %6 = alloca i32, align 4
  call void @llvm.lifetime.start.p0(i64 4, ptr nonnull %5) #13
  store i32 0, ptr %5, align 4, !tbaa !12
  call void @llvm.lifetime.start.p0(i64 4, ptr nonnull %6) #13
  store i32 0, ptr %6, align 4, !tbaa !13
  %7 = load i32, ptr %3, align 4, !tbaa !13
  %8 = icmp slt i32 %7, 1
  br i1 %8, label %9, label %38

9:                                                ; preds = %4
  %10 = getelementptr inbounds nuw i8, ptr %0, i64 16
  %11 = load ptr, ptr %10, align 8, !tbaa !15
  %12 = icmp eq ptr %11, null
  br i1 %12, label %13, label %14

13:                                               ; preds = %9
  store i32 2, ptr %3, align 4, !tbaa !13
  br label %38

14:                                               ; preds = %9
  %15 = call ptr @ures_getByKey_77(ptr noundef nonnull %11, ptr noundef nonnull @.str.14, ptr noundef null, ptr noundef nonnull %6)
  %16 = load i32, ptr %6, align 4, !tbaa !13
  switch i32 %16, label %.thread [
    i32 -127, label %17
    i32 0, label %._crit_edge
  ]

._crit_edge:                                      ; preds = %14
  %.pre = load i32, ptr %3, align 4, !tbaa !13
  br label %21

17:                                               ; preds = %14
  %18 = load i8, ptr %0, align 8, !tbaa !18
  %.not19 = icmp eq i8 %18, 0
  br i1 %.not19, label %.thread, label %19

19:                                               ; preds = %17
  store i32 2, ptr %6, align 4, !tbaa !13
  br label %.thread

.thread:                                          ; preds = %14, %17, %19
  %20 = phi i32 [ -127, %17 ], [ 2, %19 ], [ %16, %14 ]
  store i32 %20, ptr %3, align 4, !tbaa !13
  br label %21

21:                                               ; preds = %._crit_edge, %.thread
  %22 = phi i32 [ %.pre, %._crit_edge ], [ %20, %.thread ]
  %23 = icmp slt i32 %22, 1
  br i1 %23, label %25, label %24

24:                                               ; preds = %21
  call void @ures_close_77(ptr noundef %15)
  br label %38

25:                                               ; preds = %21
  %26 = call ptr @ures_getStringByKey_77(ptr noundef %15, ptr noundef nonnull @.str.15, ptr noundef nonnull %5, ptr noundef nonnull %6)
  call void @ures_close_77(ptr noundef %15)
  %27 = load i32, ptr %6, align 4, !tbaa !13
  switch i32 %27, label %.thread28 [
    i32 -127, label %28
    i32 0, label %._crit_edge30
  ]

._crit_edge30:                                    ; preds = %25
  %.pre31 = load i32, ptr %3, align 4, !tbaa !13
  br label %32

28:                                               ; preds = %25
  %29 = load i8, ptr %0, align 8, !tbaa !18
  %.not22 = icmp eq i8 %29, 0
  br i1 %.not22, label %.thread28, label %30

30:                                               ; preds = %28
  store i32 2, ptr %6, align 4, !tbaa !13
  br label %.thread28

.thread28:                                        ; preds = %25, %28, %30
  %31 = phi i32 [ -127, %28 ], [ 2, %30 ], [ %27, %25 ]
  store i32 %31, ptr %3, align 4, !tbaa !13
  br label %32

32:                                               ; preds = %._crit_edge30, %.thread28
  %33 = phi i32 [ %.pre31, %._crit_edge30 ], [ %31, %.thread28 ]
  %34 = icmp slt i32 %33, 1
  br i1 %34, label %35, label %38

35:                                               ; preds = %32
  %36 = call ptr @u_strncpy_77(ptr noundef %1, ptr noundef %26, i32 noundef %2)
  %37 = load i32, ptr %5, align 4, !tbaa !12
  br label %38

38:                                               ; preds = %32, %4, %35, %24, %13
  %.0 = phi i32 [ 0, %13 ], [ 0, %24 ], [ %37, %35 ], [ 0, %4 ], [ 0, %32 ]
  call void @llvm.lifetime.end.p0(i64 4, ptr nonnull %6) #13
  call void @llvm.lifetime.end.p0(i64 4, ptr nonnull %5) #13
  ret i32 %.0
}